target datalayout = "e-m:e-p270:32:32-p271:32:32-p272:64:64-i64:64-i128:128-f80:128-n8:16:32:64-S128"
target triple = "x86_64-pc-linux-gnu"

%struct.If_Cut_t_ = type <{ float, float, float, float, i32, i32, i32, i64, [0 x i32] }>
%struct.If_Man_t_ = type { ptr, ptr, ptr, ptr, ptr, ptr, ptr, ptr, [5 x i32], i32, float, float, float, float, i32, float, i32, i32, [4 x ptr], ptr, i32, i32, i32, ptr, [3 x [32 x i32]], i32, i32, i32, ptr, ptr, ptr, ptr, ptr, ptr, ptr, i32, i32, i32, [16 x i32], i32, i32, i32, i32, ptr, ptr, ptr, ptr, ptr, i32, i32, [32 x i32], [32 x i32], i32, i32, i32, i32, ptr, [16 x ptr], [16 x ptr], [16 x ptr], [16 x ptr], [16 x ptr], [16 x ptr], [16 x ptr], ptr, ptr, ptr, ptr, [32 x i8], i32, i32, i32, [6 x i64], [2 x i32], [2 x i32], ptr, [15 x i32], ptr, ptr, ptr, [16 x i32], ptr, ptr, ptr, ptr, [2 x i32], [2 x i32], [2 x ptr], ptr }
%struct.If_Obj_t_ = type { i32, i32, i32, i32, i32, i32, ptr, ptr, ptr, float, float, float, %union.anon, ptr, %struct.If_Cut_t_ }
%union.anon = type { ptr }
%struct.Vec_Int_t_ = type { i32, i32, ptr }
%struct.Vec_Ptr_t_ = type { i32, i32, ptr }

; Function Attrs: inlinehint nounwind uwtable
define internal ptr @Vec_PtrEntry(ptr noundef %0, i32 noundef %1) #2 {
  %3 = alloca ptr, align 8
  %4 = alloca i32, align 4
  store ptr %0, ptr %3, align 8, !tbaa !134
  store i32 %1, ptr %4, align 4, !tbaa !8
  %5 = load ptr, ptr %3, align 8, !tbaa !134
  %6 = getelementptr inbounds nuw %struct.Vec_Ptr_t_, ptr %5, i32 0, i32 2
  %7 = load ptr, ptr %6, align 8, !tbaa !137
  %8 = load i32, ptr %4, align 4, !tbaa !8
  %9 = sext i32 %8 to i64
  %10 = getelementptr inbounds ptr, ptr %7, i64 %9
  %11 = load ptr, ptr %10, align 8, !tbaa !138
  ret ptr %11
}

; Function Attrs: inlinehint nounwind uwtable
define internal ptr @If_ObjCutBest(ptr noundef %0) #2 {
  %2 = alloca ptr, align 8
  store ptr %0, ptr %2, align 8, !tbaa !99
  %3 = load ptr, ptr %2, align 8, !tbaa !99
  %4 = getelementptr inbounds nuw %struct.If_Obj_t_, ptr %3, i32 0, i32 14
  ret ptr %4
}

; Function Attrs: inlinehint nounwind uwtable
define internal i32 @If_ObjIsAnd(ptr noundef %0) #2 {
  %2 = alloca ptr, align 8
  store ptr %0, ptr %2, align 8, !tbaa !99
  %3 = load ptr, ptr %2, align 8, !tbaa !99
  %4 = load i32, ptr %3, align 8
  %5 = and i32 %4, 15
  %6 = icmp eq i32 %5, 4
  %7 = zext i1 %6 to i32
  ret i32 %7
}

; Function Attrs: inlinehint nounwind uwtable
define internal ptr @If_ManObj(ptr noundef %0, i32 noundef %1) #2 {
  %3 = alloca ptr, align 8
  %4 = alloca i32, align 4
  store ptr %0, ptr %3, align 8, !tbaa !35
  store i32 %1, ptr %4, align 4, !tbaa !8
  %5 = load ptr, ptr %3, align 8, !tbaa !35
  %6 = getelementptr inbounds nuw %struct.If_Man_t_, ptr %5, i32 0, i32 5
  %7 = load ptr, ptr %6, align 8, !tbaa !104
  %8 = load i32, ptr %4, align 4, !tbaa !8
  %9 = call ptr @Vec_PtrEntry(ptr noundef %7, i32 noundef %8)
  ret ptr %9
}

; Function Attrs: nounwind uwtable
define float @If_CutPowerRef(ptr noundef %0, ptr noundef %1, ptr noundef %2) #0 {
  %4 = alloca ptr, align 8
  %5 = alloca ptr, align 8
  %6 = alloca ptr, align 8
  %7 = alloca ptr, align 8
  %8 = alloca ptr, align 8
  %9 = alloca float, align 4
  %10 = alloca i32, align 4
  store ptr %0, ptr %4, align 8, !tbaa !35
  store ptr %1, ptr %5, align 8, !tbaa !15
  store ptr %2, ptr %6, align 8, !tbaa !99
  call void @llvm.lifetime.start.p0(i64 8, ptr %7) #9
  call void @llvm.lifetime.start.p0(i64 8, ptr %8) #9
  %11 = load ptr, ptr %4, align 8, !tbaa !35
  %12 = getelementptr inbounds nuw %struct.If_Man_t_, ptr %11, i32 0, i32 23
  %13 = load ptr, ptr %12, align 8, !tbaa !113
  %14 = getelementptr inbounds nuw %struct.Vec_Int_t_, ptr %13, i32 0, i32 2
  %15 = load ptr, ptr %14, align 8, !tbaa !114
  store ptr %15, ptr %8, align 8, !tbaa !116
  call void @llvm.lifetime.start.p0(i64 4, ptr %9) #9
  store float 0.000000e+00, ptr %9, align 4, !tbaa !106
  call void @llvm.lifetime.start.p0(i64 4, ptr %10) #9
  store i32 0, ptr %10, align 4, !tbaa !8
  br label %16

16:                                               ; preds = %65, %3
  %17 = load i32, ptr %10, align 4, !tbaa !8
  %18 = load ptr, ptr %5, align 8, !tbaa !15
  %19 = getelementptr inbounds nuw %struct.If_Cut_t_, ptr %18, i32 0, i32 7
  %20 = load i64, ptr %19, align 4
  %21 = lshr i64 %20, 24
  %22 = and i64 %21, 255
  %23 = trunc i64 %22 to i32
  %24 = icmp slt i32 %17, %23
  br i1 %24, label %25, label %35

25:                                               ; preds = %16
  %26 = load ptr, ptr %4, align 8, !tbaa !35
  %27 = load ptr, ptr %5, align 8, !tbaa !15
  %28 = getelementptr inbounds nuw %struct.If_Cut_t_, ptr %27, i32 0, i32 8
  %29 = load i32, ptr %10, align 4, !tbaa !8
  %30 = sext i32 %29 to i64
  %31 = getelementptr inbounds [0 x i32], ptr %28, i64 0, i64 %30
  %32 = load i32, ptr %31, align 4, !tbaa !8
  %33 = call ptr @If_ManObj(ptr noundef %26, i32 noundef %32)
  store ptr %33, ptr %7, align 8, !tbaa !99
  %34 = icmp ne ptr %33, null
  br label %35

35:                                               ; preds = %25, %16
  %36 = phi i1 [ false, %16 ], [ %34, %25 ]
  br i1 %36, label %37, label %68

37:                                               ; preds = %35
  %38 = load ptr, ptr %8, align 8, !tbaa !116
  %39 = load ptr, ptr %7, align 8, !tbaa !99
  %40 = getelementptr inbounds nuw %struct.If_Obj_t_, ptr %39, i32 0, i32 1
  %41 = load i32, ptr %40, align 4, !tbaa !100
  %42 = sext i32 %41 to i64
  %43 = getelementptr inbounds float, ptr %38, i64 %42
  %44 = load float, ptr %43, align 4, !tbaa !106
  %45 = load float, ptr %9, align 4, !tbaa !106
  %46 = fadd float %45, %44
  store float %46, ptr %9, align 4, !tbaa !106
  %47 = load ptr, ptr %7, align 8, !tbaa !99
  %48 = getelementptr inbounds nuw %struct.If_Obj_t_, ptr %47, i32 0, i32 3
  %49 = load i32, ptr %48, align 4, !tbaa !107
  %50 = add nsw i32 %49, 1
  store i32 %50, ptr %48, align 4, !tbaa !107
  %51 = icmp sgt i32 %49, 0
  br i1 %51, label %56, label %52

52:                                               ; preds = %37
  %53 = load ptr, ptr %7, align 8, !tbaa !99
  %54 = call i32 @If_ObjIsAnd(ptr noundef %53)
  %55 = icmp ne i32 %54, 0
  br i1 %55, label %57, label %56

56:                                               ; preds = %52, %37
  br label %65

57:                                               ; preds = %52
  %58 = load ptr, ptr %4, align 8, !tbaa !35
  %59 = load ptr, ptr %7, align 8, !tbaa !99
  %60 = call ptr @If_ObjCutBest(ptr noundef %59)
  %61 = load ptr, ptr %6, align 8, !tbaa !99
  %62 = call float @If_CutPowerRef(ptr noundef %58, ptr noundef %60, ptr noundef %61)
  %63 = load float, ptr %9, align 4, !tbaa !106
  %64 = fadd float %63, %62
  store float %64, ptr %9, align 4, !tbaa !106
  br label %65

65:                                               ; preds = %57, %56
  %66 = load i32, ptr %10, align 4, !tbaa !8
  %67 = add nsw i32 %66, 1
  store i32 %67, ptr %10, align 4, !tbaa !8
  br label %16, !llvm.loop !124

68:                                               ; preds = %35
  %69 = load float, ptr %9, align 4, !tbaa !106
  call void @llvm.lifetime.end.p0(i64 4, ptr %10) #9
  call void @llvm.lifetime.end.p0(i64 4, ptr %9) #9
  call void @llvm.lifetime.end.p0(i64 8, ptr %8) #9
  call void @llvm.lifetime.end.p0(i64 8, ptr %7) #9
  ret float %69
}