; Function Attrs: nofree nosync nounwind memory(readwrite, inaccessiblemem: none) uwtable
define float @If_CutPowerRef(ptr noundef readonly captures(none) %0, ptr noundef readonly captures(none) %1, ptr noundef readnone captures(none) %2) local_unnamed_addr #8 {
  %4 = getelementptr inbounds nuw i8, ptr %0, i64 176
  %5 = load ptr, ptr %4, align 8, !tbaa !108
  %6 = getelementptr inbounds nuw i8, ptr %5, i64 8
  %7 = load ptr, ptr %6, align 8, !tbaa !109
  %8 = getelementptr inbounds nuw i8, ptr %1, i64 36
  %9 = getelementptr inbounds nuw i8, ptr %1, i64 28
  %10 = load i64, ptr %9, align 4
  %11 = and i64 %10, 4278190080
  %.not25 = icmp eq i64 %11, 0
  br i1 %.not25, label %.critedge, label %.lr.ph

.lr.ph:                                           ; preds = %3
  %12 = getelementptr i8, ptr %0, i64 40
  br label %13

13:                                               ; preds = %.lr.ph, %37
  %indvars.iv = phi i64 [ 0, %.lr.ph ], [ %indvars.iv.next, %37 ]
  %.01621 = phi float [ 0.000000e+00, %.lr.ph ], [ %.1, %37 ]
  %14 = getelementptr inbounds nuw [0 x i32], ptr %8, i64 0, i64 %indvars.iv
  %15 = load i32, ptr %14, align 4, !tbaa !14
  %.val = load ptr, ptr %12, align 8, !tbaa !92
  %16 = getelementptr i8, ptr %.val, i64 8
  %.val.val = load ptr, ptr %16, align 8, !tbaa !93
  %17 = sext i32 %15 to i64
  %18 = getelementptr inbounds ptr, ptr %.val.val, i64 %17
  %19 = load ptr, ptr %18, align 8, !tbaa !95
  %.not = icmp eq ptr %19, null
  br i1 %.not, label %.critedge, label %20

20:                                               ; preds = %13
  %21 = getelementptr inbounds nuw i8, ptr %19, i64 4
  %22 = load i32, ptr %21, align 4, !tbaa !96
  %23 = sext i32 %22 to i64
  %24 = getelementptr inbounds float, ptr %7, i64 %23
  %25 = load float, ptr %24, align 4, !tbaa !103
  %26 = fadd float %.01621, %25
  %27 = getelementptr inbounds nuw i8, ptr %19, i64 12
  %28 = load i32, ptr %27, align 4, !tbaa !104
  %29 = add nsw i32 %28, 1
  store i32 %29, ptr %27, align 4, !tbaa !104
  %30 = icmp sgt i32 %28, 0
  br i1 %30, label %37, label %31

31:                                               ; preds = %20
  %.val19 = load i32, ptr %19, align 8
  %32 = and i32 %.val19, 15
  %.not20 = icmp eq i32 %32, 4
  br i1 %.not20, label %33, label %37

33:                                               ; preds = %31
  %34 = getelementptr inbounds nuw i8, ptr %19, i64 80
  %35 = tail call float @If_CutPowerRef(ptr noundef nonnull %0, ptr noundef nonnull %34, ptr noundef %2)
  %36 = fadd float %26, %35
  br label %37

37:                                               ; preds = %20, %31, %33
  %.1 = phi float [ %26, %20 ], [ %36, %33 ], [ %26, %31 ]
  %indvars.iv.next = add nuw nsw i64 %indvars.iv, 1
  %38 = load i64, ptr %9, align 4
  %39 = lshr i64 %38, 24
  %40 = and i64 %39, 255
  %41 = icmp samesign ult i64 %indvars.iv.next, %40
  br i1 %41, label %13, label %.critedge, !llvm.loop !119

.critedge:                                        ; preds = %13, %37, %3
  %.016.lcssa = phi float [ 0.000000e+00, %3 ], [ %.1, %37 ], [ %.01621, %13 ]
  ret float %.016.lcssa
}